; ModuleID = '7/637.c'
source_filename = "7/637.c"
target datalayout = "e-m:e-p270:32:32-p271:32:32-p272:64:64-i64:64-f80:128-n8:16:32:64-S128"
target triple = "x86_64-pc-linux-gnu"

@.str = private unnamed_addr constant [3 x i8] c"%c\00", align 1
@.str.1 = private unnamed_addr constant [3 x i8] c"%s\00", align 1

; Function Attrs: noinline nounwind uwtable
define dso_local i32 @main() #0 {
  %1 = alloca i32, align 4
  %2 = alloca [257 x i8], align 16
  %3 = alloca [200 x i8], align 16
  %4 = alloca [200 x i8], align 16
  %5 = alloca [100 x i8], align 16
  %6 = alloca i32, align 4
  %7 = alloca i32, align 4
  %8 = alloca i32, align 4
  %9 = alloca i32, align 4
  %10 = alloca i32, align 4
  %11 = alloca i32, align 4
  %12 = alloca i32, align 4
  %13 = alloca i32, align 4
  %14 = alloca i32, align 4
  store i32 0, i32* %1, align 4
  store i32 0, i32* %13, align 4
  store i32 0, i32* %14, align 4
  %15 = getelementptr inbounds [257 x i8], [257 x i8]* %2, i64 0, i64 0
  %16 = call i32 (i8*, ...) bitcast (i32 (...)* @gets to i32 (i8*, ...)*)(i8* %15)
  %17 = getelementptr inbounds [200 x i8], [200 x i8]* %3, i64 0, i64 0
  %18 = call i32 (i8*, ...) bitcast (i32 (...)* @gets to i32 (i8*, ...)*)(i8* %17)
  %19 = getelementptr inbounds [200 x i8], [200 x i8]* %4, i64 0, i64 0
  %20 = call i32 (i8*, ...) bitcast (i32 (...)* @gets to i32 (i8*, ...)*)(i8* %19)
  %21 = getelementptr inbounds [257 x i8], [257 x i8]* %2, i64 0, i64 0
  %22 = call i64 @strlen(i8* %21) #3
  %23 = trunc i64 %22 to i32
  store i32 %23, i32* %6, align 4
  %24 = getelementptr inbounds [200 x i8], [200 x i8]* %3, i64 0, i64 0
  %25 = call i64 @strlen(i8* %24) #3
  %26 = trunc i64 %25 to i32
  store i32 %26, i32* %7, align 4
  %27 = getelementptr inbounds [200 x i8], [200 x i8]* %4, i64 0, i64 0
  %28 = call i64 @strlen(i8* %27) #3
  %29 = trunc i64 %28 to i32
  store i32 %29, i32* %8, align 4
  store i32 0, i32* %9, align 4
  br label %30

30:                                               ; preds = %68, %0
  %31 = load i32, i32* %9, align 4
  %32 = load i32, i32* %6, align 4
  %33 = icmp slt i32 %31, %32
  br i1 %33, label %34, label %71

34:                                               ; preds = %30
  store i32 0, i32* %11, align 4
  store i32 0, i32* %10, align 4
  br label %35

35:                                               ; preds = %58, %34
  %36 = load i32, i32* %10, align 4
  %37 = load i32, i32* %7, align 4
  %38 = icmp slt i32 %36, %37
  br i1 %38, label %39, label %61

39:                                               ; preds = %35
  %40 = load i32, i32* %9, align 4
  %41 = load i32, i32* %10, align 4
  %42 = add nsw i32 %40, %41
  %43 = sext i32 %42 to i64
  %44 = getelementptr inbounds [257 x i8], [257 x i8]* %2, i64 0, i64 %43
  %45 = load i8, i8* %44, align 1
  %46 = sext i8 %45 to i32
  %47 = load i32, i32* %10, align 4
  %48 = sext i32 %47 to i64
  %49 = getelementptr inbounds [200 x i8], [200 x i8]* %3, i64 0, i64 %48
  %50 = load i8, i8* %49, align 1
  %51 = sext i8 %50 to i32
  %52 = icmp eq i32 %46, %51
  br i1 %52, label %53, label %56

53:                                               ; preds = %39
  %54 = load i32, i32* %11, align 4
  %55 = add nsw i32 %54, 1
  store i32 %55, i32* %11, align 4
  br label %57

56:                                               ; preds = %39
  br label %61

57:                                               ; preds = %53
  br label %58

58:                                               ; preds = %57
  %59 = load i32, i32* %10, align 4
  %60 = add nsw i32 %59, 1
  store i32 %60, i32* %10, align 4
  br label %35

61:                                               ; preds = %56, %35
  %62 = load i32, i32* %11, align 4
  %63 = load i32, i32* %7, align 4
  %64 = icmp eq i32 %62, %63
  br i1 %64, label %65, label %67

65:                                               ; preds = %61
  %66 = load i32, i32* %9, align 4
  store i32 %66, i32* %12, align 4
  store i32 1, i32* %13, align 4
  br label %71

67:                                               ; preds = %61
  br label %68

68:                                               ; preds = %67
  %69 = load i32, i32* %9, align 4
  %70 = add nsw i32 %69, 1
  store i32 %70, i32* %9, align 4
  br label %30

71:                                               ; preds = %65, %30
  %72 = load i32, i32* %13, align 4
  %73 = icmp eq i32 %72, 1
  br i1 %73, label %74, label %110

74:                                               ; preds = %71
  store i32 0, i32* %9, align 4
  br label %75

75:                                               ; preds = %86, %74
  %76 = load i32, i32* %9, align 4
  %77 = load i32, i32* %12, align 4
  %78 = icmp slt i32 %76, %77
  br i1 %78, label %79, label %89

79:                                               ; preds = %75
  %80 = load i32, i32* %9, align 4
  %81 = sext i32 %80 to i64
  %82 = getelementptr inbounds [257 x i8], [257 x i8]* %2, i64 0, i64 %81
  %83 = load i8, i8* %82, align 1
  %84 = sext i8 %83 to i32
  %85 = call i32 (i8*, ...) @printf(i8* getelementptr inbounds ([3 x i8], [3 x i8]* @.str, i64 0, i64 0), i32 %84)
  br label %86

86:                                               ; preds = %79
  %87 = load i32, i32* %9, align 4
  %88 = add nsw i32 %87, 1
  store i32 %88, i32* %9, align 4
  br label %75

89:                                               ; preds = %75
  %90 = getelementptr inbounds [200 x i8], [200 x i8]* %4, i64 0, i64 0
  %91 = call i32 (i8*, ...) @printf(i8* getelementptr inbounds ([3 x i8], [3 x i8]* @.str.1, i64 0, i64 0), i8* %90)
  %92 = load i32, i32* %12, align 4
  %93 = load i32, i32* %11, align 4
  %94 = add nsw i32 %92, %93
  store i32 %94, i32* %9, align 4
  br label %95

95:                                               ; preds = %106, %89
  %96 = load i32, i32* %9, align 4
  %97 = load i32, i32* %6, align 4
  %98 = icmp slt i32 %96, %97
  br i1 %98, label %99, label %109

99:                                               ; preds = %95
  %100 = load i32, i32* %9, align 4
  %101 = sext i32 %100 to i64
  %102 = getelementptr inbounds [257 x i8], [257 x i8]* %2, i64 0, i64 %101
  %103 = load i8, i8* %102, align 1
  %104 = sext i8 %103 to i32
  %105 = call i32 (i8*, ...) @printf(i8* getelementptr inbounds ([3 x i8], [3 x i8]* @.str, i64 0, i64 0), i32 %104)
  br label %106

106:                                              ; preds = %99
  %107 = load i32, i32* %9, align 4
  %108 = add nsw i32 %107, 1
  store i32 %108, i32* %9, align 4
  br label %95

109:                                              ; preds = %95
  br label %117

110:                                              ; preds = %71
  %111 = load i32, i32* %13, align 4
  %112 = icmp eq i32 %111, 0
  br i1 %112, label %113, label %116

113:                                              ; preds = %110
  %114 = getelementptr inbounds [257 x i8], [257 x i8]* %2, i64 0, i64 0
  %115 = call i32 (i8*, ...) @printf(i8* getelementptr inbounds ([3 x i8], [3 x i8]* @.str.1, i64 0, i64 0), i8* %114)
  br label %116

116:                                              ; preds = %113, %110
  br label %117

117:                                              ; preds = %116, %109
  ret i32 0
}

declare dso_local i32 @gets(...) #1

; Function Attrs: nounwind readonly
declare dso_local i64 @strlen(i8*) #2

declare dso_local i32 @printf(i8*, ...) #1


!llvm.module.flags = !{!0}
!llvm.ident = !{!1}

!0 = !{i32 1, !"wchar_size", i32 4}
!1 = !{!"clang version 10.0.0-4ubuntu1 "}
