; ModuleID = 'source-C-CXX/6/637.c'
source_filename = "source-C-CXX/6/637.c"
target datalayout = "e-m:e-p270:32:32-p271:32:32-p272:64:64-i64:64-f80:128-n8:16:32:64-S128"
target triple = "x86_64-pc-linux-gnu"

@.str.1 = private unnamed_addr constant [3 x i8] c"%s\00", align 1

; Function Attrs: nounwind sspstrong uwtable
define dso_local i32 @main() local_unnamed_addr #0 {
  %1 = alloca [257 x i8], align 16
  %2 = alloca [200 x i8], align 16
  %3 = alloca [200 x i8], align 16
  %4 = getelementptr inbounds [257 x i8], [257 x i8]* %1, i64 0, i64 0
  call void @llvm.lifetime.start.p0i8(i64 257, i8* nonnull %4) #6
  %5 = getelementptr inbounds [200 x i8], [200 x i8]* %2, i64 0, i64 0
  call void @llvm.lifetime.start.p0i8(i64 200, i8* nonnull %5) #6
  %6 = getelementptr inbounds [200 x i8], [200 x i8]* %3, i64 0, i64 0
  call void @llvm.lifetime.start.p0i8(i64 200, i8* nonnull %6) #6
  %7 = call i32 (i8*, ...) bitcast (i32 (...)* @gets to i32 (i8*, ...)*)(i8* nonnull %4) #6
  %8 = call i32 (i8*, ...) bitcast (i32 (...)* @gets to i32 (i8*, ...)*)(i8* nonnull %5) #6
  %9 = call i32 (i8*, ...) bitcast (i32 (...)* @gets to i32 (i8*, ...)*)(i8* nonnull %6) #6
  %10 = call i64 @strlen(i8* noundef nonnull %4) #7
  %11 = trunc i64 %10 to i32
  %12 = call i64 @strlen(i8* noundef nonnull %5) #7
  %13 = trunc i64 %12 to i32
  %14 = icmp sgt i32 %11, 0
  br i1 %14, label %15, label %76

15:                                               ; preds = %0
  %16 = icmp sgt i32 %13, 0
  br i1 %16, label %17, label %44

17:                                               ; preds = %15
  %18 = shl i64 %10, 32
  %19 = ashr exact i64 %18, 32
  %20 = and i64 %10, 4294967295
  %21 = and i64 %12, 4294967295
  br label %22

22:                                               ; preds = %17, %36
  %23 = phi i64 [ 0, %17 ], [ %37, %36 ]
  %24 = phi i1 [ true, %17 ], [ %38, %36 ]
  br label %25

25:                                               ; preds = %22, %40
  %26 = phi i64 [ 0, %22 ], [ %42, %40 ]
  %27 = phi i32 [ 0, %22 ], [ %41, %40 ]
  %28 = add nuw nsw i64 %26, %23
  %29 = getelementptr inbounds [257 x i8], [257 x i8]* %1, i64 0, i64 %28
  %30 = load i8, i8* %29, align 1, !tbaa !5
  %31 = getelementptr inbounds [200 x i8], [200 x i8]* %2, i64 0, i64 %26
  %32 = load i8, i8* %31, align 1, !tbaa !5
  %33 = icmp eq i8 %30, %32
  br i1 %33, label %40, label %34

34:                                               ; preds = %25
  %35 = icmp eq i32 %27, %13
  br i1 %35, label %46, label %36

36:                                               ; preds = %34
  %37 = add nuw nsw i64 %23, 1
  %38 = icmp slt i64 %37, %19
  %39 = icmp eq i64 %37, %20
  br i1 %39, label %76, label %22, !llvm.loop !8

40:                                               ; preds = %25
  %41 = add nuw nsw i32 %27, 1
  %42 = add nuw nsw i64 %26, 1
  %43 = icmp eq i64 %42, %21
  br i1 %43, label %46, label %25, !llvm.loop !10

44:                                               ; preds = %15
  %45 = icmp eq i32 %13, 0
  br i1 %45, label %60, label %76

46:                                               ; preds = %34, %40
  %47 = trunc i64 %23 to i32
  br i1 %24, label %48, label %76

48:                                               ; preds = %46
  %49 = icmp eq i32 %47, 0
  br i1 %49, label %60, label %50

50:                                               ; preds = %48
  %51 = and i64 %23, 4294967295
  br label %52

52:                                               ; preds = %50, %52
  %53 = phi i64 [ 0, %50 ], [ %58, %52 ]
  %54 = getelementptr inbounds [257 x i8], [257 x i8]* %1, i64 0, i64 %53
  %55 = load i8, i8* %54, align 1, !tbaa !5
  %56 = sext i8 %55 to i32
  %57 = call i32 @putchar(i32 %56)
  %58 = add nuw nsw i64 %53, 1
  %59 = icmp eq i64 %58, %51
  br i1 %59, label %60, label %52, !llvm.loop !11

60:                                               ; preds = %52, %44, %48
  %61 = phi i32 [ 0, %48 ], [ 0, %44 ], [ %47, %52 ]
  %62 = call i32 (i8*, ...) @printf(i8* nonnull dereferenceable(1) getelementptr inbounds ([3 x i8], [3 x i8]* @.str.1, i64 0, i64 0), i8* nonnull %6)
  %63 = add i32 %61, %13
  %64 = icmp slt i32 %63, %11
  br i1 %64, label %65, label %78

65:                                               ; preds = %60
  %66 = zext i32 %63 to i64
  br label %67

67:                                               ; preds = %65, %67
  %68 = phi i64 [ %66, %65 ], [ %73, %67 ]
  %69 = getelementptr inbounds [257 x i8], [257 x i8]* %1, i64 0, i64 %68
  %70 = load i8, i8* %69, align 1, !tbaa !5
  %71 = sext i8 %70 to i32
  %72 = call i32 @putchar(i32 %71)
  %73 = add nuw nsw i64 %68, 1
  %74 = trunc i64 %73 to i32
  %75 = icmp slt i32 %74, %11
  br i1 %75, label %67, label %78, !llvm.loop !12

76:                                               ; preds = %36, %44, %0, %46
  %77 = call i32 (i8*, ...) @printf(i8* nonnull dereferenceable(1) getelementptr inbounds ([3 x i8], [3 x i8]* @.str.1, i64 0, i64 0), i8* nonnull %4)
  br label %78

78:                                               ; preds = %67, %60, %76
  call void @llvm.lifetime.end.p0i8(i64 200, i8* nonnull %6) #6
  call void @llvm.lifetime.end.p0i8(i64 200, i8* nonnull %5) #6
  call void @llvm.lifetime.end.p0i8(i64 257, i8* nonnull %4) #6
  ret i32 0
}

; Function Attrs: argmemonly mustprogress nofree nosync nounwind willreturn
declare void @llvm.lifetime.start.p0i8(i64 immarg, i8* nocapture) #1

declare i32 @gets(...) local_unnamed_addr #2

; Function Attrs: argmemonly mustprogress nofree nounwind readonly willreturn
declare i64 @strlen(i8* nocapture) local_unnamed_addr #3

; Function Attrs: nofree nounwind
declare noundef i32 @printf(i8* nocapture noundef readonly, ...) local_unnamed_addr #4

; Function Attrs: argmemonly mustprogress nofree nosync nounwind willreturn
declare void @llvm.lifetime.end.p0i8(i64 immarg, i8* nocapture) #1

; Function Attrs: nofree nounwind
declare noundef i32 @putchar(i32 noundef) local_unnamed_addr #5


!llvm.module.flags = !{!0, !1, !2, !3}
!llvm.ident = !{!4}

!0 = !{i32 1, !"wchar_size", i32 4}
!1 = !{i32 7, !"PIC Level", i32 2}
!2 = !{i32 7, !"PIE Level", i32 2}
!3 = !{i32 7, !"uwtable", i32 1}
!4 = !{!"clang version 13.0.0"}
!5 = !{!6, !6, i64 0}
!6 = !{!"omnipotent char", !7, i64 0}
!7 = !{!"Simple C/C++ TBAA"}
!8 = distinct !{!8, !9}
!9 = !{!"llvm.loop.mustprogress"}
!10 = distinct !{!10, !9}
!11 = distinct !{!11, !9}
!12 = distinct !{!12, !9}
